; Function Attrs: mustprogress uwtable
define hidden void @_ZN6google8protobuf8compiler3cpp9NamespaceB5cxx11ESt17basic_string_viewIcSt11char_traitsIcEE(ptr noalias sret(%"class.std::__cxx11::basic_string") align 8 %agg.result, i64 %package.coerce0, ptr %package.coerce1) local_unnamed_addr #4 personality ptr @__gxx_personality_v0 {
entry:
  %ref.tmp.i = alloca [1 x %"struct.std::pair.37"], align 8
  %ref.tmp = alloca %"class.std::allocator", align 1
  %ref.tmp1 = alloca %"class.absl::lts_20230802::AlphaNum", align 8
  %ref.tmp2 = alloca %"class.absl::lts_20230802::AlphaNum", align 8
  %ref.tmp3 = alloca %"class.std::__cxx11::basic_string", align 8
  %cmp.i = icmp eq i64 %package.coerce0, 0
  br i1 %cmp.i, label %if.then, label %if.end

if.then:                                          ; preds = %entry
  call void @_ZNSaIcEC1Ev(ptr noundef nonnull align 1 dereferenceable(1) %ref.tmp) #26
  %call.i2 = invoke noundef ptr @_ZNSt7__cxx1112basic_stringIcSt11char_traitsIcESaIcEE13_M_local_dataEv(ptr noundef nonnull align 8 dereferenceable(32) %agg.result)
          to label %call.i.noexc unwind label %lpad

call.i.noexc:                                     ; preds = %if.then
  invoke void @_ZNSt7__cxx1112basic_stringIcSt11char_traitsIcESaIcEE12_Alloc_hiderC1EPcRKS3_(ptr noundef nonnull align 8 dereferenceable(8) %agg.result, ptr noundef %call.i2, ptr noundef nonnull align 1 dereferenceable(1) %ref.tmp)
          to label %.noexc unwind label %lpad

.noexc:                                           ; preds = %call.i.noexc
  invoke void @_ZNSt7__cxx1112basic_stringIcSt11char_traitsIcESaIcEE12_M_constructIPKcEEvT_S8_St20forward_iterator_tag(ptr noundef nonnull align 8 dereferenceable(32) %agg.result, ptr noundef nonnull @.str, ptr noundef nonnull @.str)
          to label %invoke.cont unwind label %lpad.i

lpad.i:                                           ; preds = %.noexc
  %0 = landingpad { ptr, i32 }
          cleanup
  call void @_ZNSaIcED2Ev(ptr noundef nonnull align 1 dereferenceable(1) %agg.result) #26
  br label %lpad.body

invoke.cont:                                      ; preds = %.noexc
  call void @_ZNSaIcED1Ev(ptr noundef nonnull align 1 dereferenceable(1) %ref.tmp) #26
  br label %return

lpad:                                             ; preds = %call.i.noexc, %if.then
  %1 = landingpad { ptr, i32 }
          cleanup
  br label %lpad.body

lpad.body:                                        ; preds = %lpad.i, %lpad
  %eh.lpad-body = phi { ptr, i32 } [ %1, %lpad ], [ %0, %lpad.i ]
  call void @_ZNSaIcED1Ev(ptr noundef nonnull align 1 dereferenceable(1) %ref.tmp) #26
  br label %eh.resume

if.end:                                           ; preds = %entry
  store i64 2, ptr %ref.tmp1, align 8
  %2 = getelementptr inbounds i8, ptr %ref.tmp1, i64 8
  store ptr @.str.21, ptr %2, align 8
  call void @llvm.lifetime.start.p0(i64 32, ptr nonnull %ref.tmp.i)
  store i64 1, ptr %ref.tmp.i, align 8, !noalias !68
  %_M_str.i.i.i = getelementptr inbounds i8, ptr %ref.tmp.i, i64 8
  store ptr @.str.150, ptr %_M_str.i.i.i, align 8, !noalias !68
  %second.i.i = getelementptr inbounds i8, ptr %ref.tmp.i, i64 16
  store i64 2, ptr %second.i.i, align 8, !noalias !68
  %_M_str.i2.i.i = getelementptr inbounds i8, ptr %ref.tmp.i, i64 24
  store ptr @.str.21, ptr %_M_str.i2.i.i, align 8, !noalias !68
  call void @_ZN4absl12lts_2023080213StrReplaceAllB5cxx11ESt17basic_string_viewIcSt11char_traitsIcEESt16initializer_listISt4pairIS4_S4_EE(ptr nonnull sret(%"class.std::__cxx11::basic_string") align 8 %ref.tmp3, i64 %package.coerce0, ptr %package.coerce1, ptr nonnull %ref.tmp.i, i64 1)
  call void @llvm.lifetime.end.p0(i64 32, ptr nonnull %ref.tmp.i)
  %call.i = call { i64, ptr } @_ZNKSt7__cxx1112basic_stringIcSt11char_traitsIcESaIcEEcvSt17basic_string_viewIcS2_EEv(ptr noundef nonnull align 8 dereferenceable(32) %ref.tmp3) #26
  %3 = extractvalue { i64, ptr } %call.i, 0
  store i64 %3, ptr %ref.tmp2, align 8
  %4 = getelementptr inbounds i8, ptr %ref.tmp2, i64 8
  %5 = extractvalue { i64, ptr } %call.i, 1
  store ptr %5, ptr %4, align 8
  invoke void @_ZN4absl12lts_202308026StrCatB5cxx11ERKNS0_8AlphaNumES3_(ptr sret(%"class.std::__cxx11::basic_string") align 8 %agg.result, ptr noundef nonnull align 8 dereferenceable(48) %ref.tmp1, ptr noundef nonnull align 8 dereferenceable(48) %ref.tmp2)
          to label %invoke.cont6 unwind label %lpad4

invoke.cont6:                                     ; preds = %if.end
  call void @_ZNSt7__cxx1112basic_stringIcSt11char_traitsIcESaIcEED1Ev(ptr noundef nonnull align 8 dereferenceable(32) %ref.tmp3) #26
  br label %return

lpad4:                                            ; preds = %if.end
  %6 = landingpad { ptr, i32 }
          cleanup
  call void @_ZNSt7__cxx1112basic_stringIcSt11char_traitsIcESaIcEED1Ev(ptr noundef nonnull align 8 dereferenceable(32) %ref.tmp3) #26
  br label %eh.resume

return:                                           ; preds = %invoke.cont6, %invoke.cont
  ret void

eh.resume:                                        ; preds = %lpad4, %lpad.body
  %.pn = phi { ptr, i32 } [ %eh.lpad-body, %lpad.body ], [ %6, %lpad4 ]
  resume { ptr, i32 } %.pn
}